; ModuleID = '43/577.c'
source_filename = "43/577.c"
target datalayout = "e-m:e-p270:32:32-p271:32:32-p272:64:64-i64:64-f80:128-n8:16:32:64-S128"
target triple = "x86_64-pc-linux-gnu"

@.str = private unnamed_addr constant [3 x i8] c"%d\00", align 1
@.str.1 = private unnamed_addr constant [7 x i8] c"%d %d\0A\00", align 1

; Function Attrs: noinline nounwind uwtable
define dso_local void @main() #0 {
  %1 = alloca i32, align 4
  %2 = alloca i32, align 4
  %3 = alloca i32, align 4
  %4 = alloca i32, align 4
  %5 = alloca [10000 x i32], align 16
  %6 = alloca i32, align 4
  %7 = alloca i32, align 4
  store i32 0, i32* %6, align 4
  %8 = call i32 (i8*, ...) @__isoc99_scanf(i8* getelementptr inbounds ([3 x i8], [3 x i8]* @.str, i64 0, i64 0), i32* %1)
  store i32 3, i32* %2, align 4
  br label %9

9:                                                ; preds = %44, %0
  %10 = load i32, i32* %2, align 4
  %11 = load i32, i32* %1, align 4
  %12 = icmp slt i32 %10, %11
  br i1 %12, label %13, label %47

13:                                               ; preds = %9
  %14 = load i32, i32* %2, align 4
  %15 = sitofp i32 %14 to double
  %16 = call double @sqrt(double %15) #3
  %17 = fptosi double %16 to i32
  store i32 %17, i32* %4, align 4
  store i32 2, i32* %3, align 4
  br label %18

18:                                               ; preds = %29, %13
  %19 = load i32, i32* %3, align 4
  %20 = load i32, i32* %4, align 4
  %21 = icmp sle i32 %19, %20
  br i1 %21, label %22, label %32

22:                                               ; preds = %18
  %23 = load i32, i32* %2, align 4
  %24 = load i32, i32* %3, align 4
  %25 = srem i32 %23, %24
  %26 = icmp eq i32 %25, 0
  br i1 %26, label %27, label %28

27:                                               ; preds = %22
  br label %32

28:                                               ; preds = %22
  br label %29

29:                                               ; preds = %28
  %30 = load i32, i32* %3, align 4
  %31 = add nsw i32 %30, 1
  store i32 %31, i32* %3, align 4
  br label %18

32:                                               ; preds = %27, %18
  %33 = load i32, i32* %3, align 4
  %34 = load i32, i32* %4, align 4
  %35 = add nsw i32 %34, 1
  %36 = icmp sge i32 %33, %35
  br i1 %36, label %37, label %43

37:                                               ; preds = %32
  %38 = load i32, i32* %2, align 4
  %39 = load i32, i32* %6, align 4
  %40 = add nsw i32 %39, 1
  store i32 %40, i32* %6, align 4
  %41 = sext i32 %39 to i64
  %42 = getelementptr inbounds [10000 x i32], [10000 x i32]* %5, i64 0, i64 %41
  store i32 %38, i32* %42, align 4
  br label %43

43:                                               ; preds = %37, %32
  br label %44

44:                                               ; preds = %43
  %45 = load i32, i32* %2, align 4
  %46 = add nsw i32 %45, 2
  store i32 %46, i32* %2, align 4
  br label %9

47:                                               ; preds = %9
  store i32 0, i32* %3, align 4
  br label %48

48:                                               ; preds = %86, %47
  %49 = load i32, i32* %3, align 4
  %50 = load i32, i32* %6, align 4
  %51 = sub nsw i32 %50, 1
  %52 = icmp slt i32 %49, %51
  br i1 %52, label %53, label %89

53:                                               ; preds = %48
  %54 = load i32, i32* %3, align 4
  store i32 %54, i32* %7, align 4
  br label %55

55:                                               ; preds = %82, %53
  %56 = load i32, i32* %7, align 4
  %57 = load i32, i32* %6, align 4
  %58 = icmp slt i32 %56, %57
  br i1 %58, label %59, label %85

59:                                               ; preds = %55
  %60 = load i32, i32* %3, align 4
  %61 = sext i32 %60 to i64
  %62 = getelementptr inbounds [10000 x i32], [10000 x i32]* %5, i64 0, i64 %61
  %63 = load i32, i32* %62, align 4
  %64 = load i32, i32* %7, align 4
  %65 = sext i32 %64 to i64
  %66 = getelementptr inbounds [10000 x i32], [10000 x i32]* %5, i64 0, i64 %65
  %67 = load i32, i32* %66, align 4
  %68 = add nsw i32 %63, %67
  %69 = load i32, i32* %1, align 4
  %70 = icmp eq i32 %68, %69
  br i1 %70, label %71, label %81

71:                                               ; preds = %59
  %72 = load i32, i32* %3, align 4
  %73 = sext i32 %72 to i64
  %74 = getelementptr inbounds [10000 x i32], [10000 x i32]* %5, i64 0, i64 %73
  %75 = load i32, i32* %74, align 4
  %76 = load i32, i32* %7, align 4
  %77 = sext i32 %76 to i64
  %78 = getelementptr inbounds [10000 x i32], [10000 x i32]* %5, i64 0, i64 %77
  %79 = load i32, i32* %78, align 4
  %80 = call i32 (i8*, ...) @printf(i8* getelementptr inbounds ([7 x i8], [7 x i8]* @.str.1, i64 0, i64 0), i32 %75, i32 %79)
  br label %81

81:                                               ; preds = %71, %59
  br label %82

82:                                               ; preds = %81
  %83 = load i32, i32* %7, align 4
  %84 = add nsw i32 %83, 1
  store i32 %84, i32* %7, align 4
  br label %55

85:                                               ; preds = %55
  br label %86

86:                                               ; preds = %85
  %87 = load i32, i32* %3, align 4
  %88 = add nsw i32 %87, 1
  store i32 %88, i32* %3, align 4
  br label %48

89:                                               ; preds = %48
  ret void
}

declare dso_local i32 @__isoc99_scanf(i8*, ...) #1

; Function Attrs: nounwind
declare dso_local double @sqrt(double) #2

declare dso_local i32 @printf(i8*, ...) #1


!llvm.module.flags = !{!0}
!llvm.ident = !{!1}

!0 = !{i32 1, !"wchar_size", i32 4}
!1 = !{!"clang version 10.0.0-4ubuntu1 "}
